target datalayout = "e-m:e-p270:32:32-p271:32:32-p272:64:64-i64:64-i128:128-f80:128-n8:16:32:64-S128"
target triple = "x86_64-pc-linux-gnu"

; Function Attrs: nounwind uwtable
define internal void @spatial_compensation_7(ptr noalias noundef %0, ptr noalias noundef %1, i64 noundef %2) #1 {
  %4 = alloca ptr, align 8
  %5 = alloca ptr, align 8
  %6 = alloca i64, align 8
  %7 = alloca i32, align 4
  %8 = alloca i32, align 4
  store ptr %0, ptr %4, align 8, !tbaa !14
  store ptr %1, ptr %5, align 8, !tbaa !14
  store i64 %2, ptr %6, align 8, !tbaa !16
  call void @llvm.lifetime.start.p0(i64 4, ptr %7) #6
  call void @llvm.lifetime.start.p0(i64 4, ptr %8) #6
  store i32 0, ptr %8, align 4, !tbaa !18
  br label %9

9:                                                ; preds = %73, %3
  %10 = load i32, ptr %8, align 4, !tbaa !18
  %11 = icmp slt i32 %10, 8
  br i1 %11, label %12, label %76

12:                                               ; preds = %9
  store i32 0, ptr %7, align 4, !tbaa !18
  br label %13

13:                                               ; preds = %66, %12
  %14 = load i32, ptr %7, align 4, !tbaa !18
  %15 = icmp slt i32 %14, 8
  br i1 %15, label %16, label %69

16:                                               ; preds = %13
  %17 = load i32, ptr %7, align 4, !tbaa !18
  %18 = load i32, ptr %8, align 4, !tbaa !18
  %19 = mul nsw i32 2, %18
  %20 = sub nsw i32 %17, %19
  %21 = icmp sgt i32 %20, 0
  br i1 %21, label %22, label %51

22:                                               ; preds = %16
  %23 = load ptr, ptr %4, align 8, !tbaa !14
  %24 = load i32, ptr %7, align 4, !tbaa !18
  %25 = add nsw i32 15, %24
  %26 = load i32, ptr %8, align 4, !tbaa !18
  %27 = mul nsw i32 2, %26
  %28 = sub nsw i32 %25, %27
  %29 = sext i32 %28 to i64
  %30 = getelementptr inbounds i8, ptr %23, i64 %29
  %31 = load i8, ptr %30, align 1, !tbaa !22
  %32 = zext i8 %31 to i32
  %33 = load ptr, ptr %4, align 8, !tbaa !14
  %34 = load i32, ptr %7, align 4, !tbaa !18
  %35 = add nsw i32 16, %34
  %36 = load i32, ptr %8, align 4, !tbaa !18
  %37 = mul nsw i32 2, %36
  %38 = sub nsw i32 %35, %37
  %39 = sext i32 %38 to i64
  %40 = getelementptr inbounds i8, ptr %33, i64 %39
  %41 = load i8, ptr %40, align 1, !tbaa !22
  %42 = zext i8 %41 to i32
  %43 = add nsw i32 %32, %42
  %44 = add nsw i32 %43, 1
  %45 = ashr i32 %44, 1
  %46 = trunc i32 %45 to i8
  %47 = load ptr, ptr %5, align 8, !tbaa !14
  %48 = load i32, ptr %7, align 4, !tbaa !18
  %49 = sext i32 %48 to i64
  %50 = getelementptr inbounds i8, ptr %47, i64 %49
  store i8 %46, ptr %50, align 1, !tbaa !22
  br label %65

51:                                               ; preds = %16
  %52 = load ptr, ptr %4, align 8, !tbaa !14
  %53 = load i32, ptr %8, align 4, !tbaa !18
  %54 = sub nsw i32 16, %53
  %55 = load i32, ptr %7, align 4, !tbaa !18
  %56 = ashr i32 %55, 1
  %57 = add nsw i32 %54, %56
  %58 = sext i32 %57 to i64
  %59 = getelementptr inbounds i8, ptr %52, i64 %58
  %60 = load i8, ptr %59, align 1, !tbaa !22
  %61 = load ptr, ptr %5, align 8, !tbaa !14
  %62 = load i32, ptr %7, align 4, !tbaa !18
  %63 = sext i32 %62 to i64
  %64 = getelementptr inbounds i8, ptr %61, i64 %63
  store i8 %60, ptr %64, align 1, !tbaa !22
  br label %65

65:                                               ; preds = %51, %22
  br label %66

66:                                               ; preds = %65
  %67 = load i32, ptr %7, align 4, !tbaa !18
  %68 = add nsw i32 %67, 1
  store i32 %68, ptr %7, align 4, !tbaa !18
  br label %13, !llvm.loop !48

69:                                               ; preds = %13
  %70 = load i64, ptr %6, align 8, !tbaa !16
  %71 = load ptr, ptr %5, align 8, !tbaa !14
  %72 = getelementptr inbounds i8, ptr %71, i64 %70
  store ptr %72, ptr %5, align 8, !tbaa !14
  br label %73

73:                                               ; preds = %69
  %74 = load i32, ptr %8, align 4, !tbaa !18
  %75 = add nsw i32 %74, 1
  store i32 %75, ptr %8, align 4, !tbaa !18
  br label %9, !llvm.loop !49

76:                                               ; preds = %9
  call void @llvm.lifetime.end.p0(i64 4, ptr %8) #6
  call void @llvm.lifetime.end.p0(i64 4, ptr %7) #6
  ret void
}