; Function Attrs: nofree norecurse nosync nounwind memory(argmem: readwrite) uwtable
define internal void @spatial_compensation_7(ptr noalias noundef readonly captures(none) %0, ptr noalias noundef writeonly captures(none) %1, i64 noundef %2) #1 {
  %invariant.gep = getelementptr i8, ptr %0, i64 16
  %invariant.gep34 = getelementptr inbounds nuw i8, ptr %0, i64 15
  %invariant.gep36 = getelementptr inbounds nuw i8, ptr %0, i64 16
  br label %.preheader

.preheader:                                       ; preds = %3, %25
  %indvars.iv30 = phi i64 [ 0, %3 ], [ %indvars.iv.next31, %25 ]
  %.02123 = phi ptr [ %1, %3 ], [ %26, %25 ]
  %4 = shl nuw nsw i64 %indvars.iv30, 1
  %5 = trunc nuw nsw i64 %indvars.iv30 to i32
  br label %6

6:                                                ; preds = %.preheader, %23
  %indvars.iv = phi i64 [ 0, %.preheader ], [ %indvars.iv.next, %23 ]
  %7 = icmp samesign ugt i64 %indvars.iv, %4
  br i1 %7, label %8, label %18

8:                                                ; preds = %6
  %9 = sub nuw nsw i64 %indvars.iv, %4
  %gep35 = getelementptr inbounds nuw i8, ptr %invariant.gep34, i64 %9
  %10 = load i8, ptr %gep35, align 1, !tbaa !14
  %11 = zext i8 %10 to i16
  %gep37 = getelementptr inbounds nuw i8, ptr %invariant.gep36, i64 %9
  %12 = load i8, ptr %gep37, align 1, !tbaa !14
  %13 = zext i8 %12 to i16
  %14 = add nuw nsw i16 %11, 1
  %15 = add nuw nsw i16 %14, %13
  %16 = lshr i16 %15, 1
  %17 = trunc nuw i16 %16 to i8
  br label %23

18:                                               ; preds = %6
  %19 = trunc nuw nsw i64 %indvars.iv to i32
  %20 = lshr i32 %19, 1
  %reass.sub = sub nsw i32 %20, %5
  %21 = sext i32 %reass.sub to i64
  %gep = getelementptr i8, ptr %invariant.gep, i64 %21
  %22 = load i8, ptr %gep, align 1, !tbaa !14
  br label %23

23:                                               ; preds = %8, %18
  %.sink = phi i8 [ %17, %8 ], [ %22, %18 ]
  %24 = getelementptr inbounds nuw i8, ptr %.02123, i64 %indvars.iv
  store i8 %.sink, ptr %24, align 1, !tbaa !14
  %indvars.iv.next = add nuw nsw i64 %indvars.iv, 1
  %exitcond.not = icmp eq i64 %indvars.iv.next, 8
  br i1 %exitcond.not, label %25, label %6, !llvm.loop !39

25:                                               ; preds = %23
  %26 = getelementptr inbounds i8, ptr %.02123, i64 %2
  %indvars.iv.next31 = add nuw nsw i64 %indvars.iv30, 1
  %exitcond33.not = icmp eq i64 %indvars.iv.next31, 8
  br i1 %exitcond33.not, label %27, label %.preheader, !llvm.loop !40

27:                                               ; preds = %25
  ret void
}